(i__main__
LogFile
p0
(dp1
S'_installed_files'
p2
(dp3
S'../../../../../../../../../cvmfs/atlas.cern.ch/repo/sw/software/AthAnalysisBase/x86_64-slc6-gcc49-opt/2.4.22/GAUDI/v26r2p1-lcg81e/GaudiPolicy/cmt/fragments/__init__.py'
p4
S'../../InstallArea/python/ZdZdPlotting/__init__.py'
p5
sS'../../ZdZdPlotting/genConf/ZdZdPlotting'
p6
(dp7
S'../../../ZdZdPlotting/genConf/ZdZdPlotting/ZdZdPlottingConf.py'
p8
S'../../InstallArea/python/ZdZdPlotting/ZdZdPlottingConf.py'
p9
ssS'../../../ZdZdPlotting/x86_64-slc6-gcc49-opt/libZdZdPlotting.so.debug'
p10
S'../../InstallArea/x86_64-slc6-gcc49-opt/lib/libZdZdPlotting.so.debug'
p11
sS'../../../ZdZdPlotting/x86_64-slc6-gcc49-opt/libZdZdPlotting.so'
p12
S'../../InstallArea/x86_64-slc6-gcc49-opt/lib/libZdZdPlotting.so'
p13
ssb.