(i__main__
LogFile
p0
(dp1
S'_installed_files'
p2
(dp3
S'../../../ZdZdPlotting/doc/PhysicsAnalysis/AnalysisCam/AnalysisCamROOT/x86_64-slc6-gcc49-opt/libAnalysisCamROOTLib.so.debug'
p4
S'../../../../../../InstallArea/x86_64-slc6-gcc49-opt/lib/libAnalysisCamROOTLib.so.debug'
p5
sS'../../../ZdZdPlotting/doc/PhysicsAnalysis/AnalysisCam/AnalysisCamROOT/x86_64-slc6-gcc49-opt/libAnalysisCamROOTLib.so'
p6
S'../../../../../../InstallArea/x86_64-slc6-gcc49-opt/lib/libAnalysisCamROOTLib.so'
p7
ssb.