(i__main__
LogFile
p0
(dp1
S'_installed_files'
p2
(dp3
S'../../../../../../../../../cvmfs/atlas.cern.ch/repo/sw/software/AthAnalysisBase/x86_64-slc6-gcc49-opt/2.4.22/GAUDI/v26r2p1-lcg81e/GaudiPolicy/cmt/fragments/__init__.py'
p4
S'../../../../../../../InstallArea/python/GeneralCamTools/__init__.py'
p5
sS'../../../ZdZdPlotting/doc/PhysicsAnalysis/AnalysisCam/AnalysisCamTools/GeneralCamTools/x86_64-slc6-gcc49-opt/libGeneralCamTools.so'
p6
S'../../../../../../../InstallArea/x86_64-slc6-gcc49-opt/lib/libGeneralCamTools.so'
p7
sS'../../../ZdZdPlotting/doc/PhysicsAnalysis/AnalysisCam/AnalysisCamTools/GeneralCamTools/x86_64-slc6-gcc49-opt/libGeneralCamTools.so.debug'
p8
S'../../../../../../../InstallArea/x86_64-slc6-gcc49-opt/lib/libGeneralCamTools.so.debug'
p9
sS'../../ZdZdPlotting/doc/PhysicsAnalysis/AnalysisCam/AnalysisCamTools/GeneralCamTools/genConf/GeneralCamTools'
p10
(dp11
S'../../../ZdZdPlotting/doc/PhysicsAnalysis/AnalysisCam/AnalysisCamTools/GeneralCamTools/genConf/GeneralCamTools/GeneralCamToolsConf.py'
p12
S'../../../../../../../InstallArea/python/GeneralCamTools/GeneralCamToolsConf.py'
p13
sssb.